target datalayout = "e-m:e-p270:32:32-p271:32:32-p272:64:64-i64:64-i128:128-f80:128-n8:16:32:64-S128"
target triple = "x86_64-pc-linux-gnu"

%struct.AVFilterContext = type { ptr, ptr, ptr, ptr, ptr, i32, ptr, ptr, i32, ptr, ptr, i32, i32, ptr, ptr, ptr, ptr, i32, ptr, i32, i32 }
%struct.AudioSDRContext = type { i32, i64, double, ptr, [2 x ptr], ptr }
%struct.ChanStats = type { double, double, double }
%struct.AVChannelLayout = type { i32, i32, %union.anon.1, ptr }
%union.anon.1 = type { i64 }
%struct.AVRational = type { i32, i32 }
%struct.AVFrame = type { [8 x ptr], [8 x i32], ptr, i32, i32, i32, i32, i32, %struct.AVRational, i64, i64, %struct.AVRational, i32, ptr, i32, i32, [8 x ptr], ptr, i32, ptr, i32, i32, i32, i32, i32, i32, i32, i64, ptr, i32, ptr, ptr, i64, i64, i64, i64, ptr, %struct.AVChannelLayout, i64 }

; Function Attrs: nounwind uwtable
define internal i32 @sisdr_fltp(ptr noundef %0, ptr noundef %1, i32 noundef %2, i32 noundef %3) #1 {
  %5 = alloca ptr, align 8
  %6 = alloca ptr, align 8
  %7 = alloca i32, align 4
  %8 = alloca i32, align 4
  %9 = alloca ptr, align 8
  %10 = alloca ptr, align 8
  %11 = alloca ptr, align 8
  %12 = alloca i32, align 4
  %13 = alloca i32, align 4
  %14 = alloca i32, align 4
  %15 = alloca i32, align 4
  %16 = alloca i32, align 4
  %17 = alloca i32, align 4
  %18 = alloca ptr, align 8
  %19 = alloca ptr, align 8
  %20 = alloca ptr, align 8
  %21 = alloca double, align 8
  %22 = alloca double, align 8
  %23 = alloca double, align 8
  %24 = alloca i32, align 4
  store ptr %0, ptr %5, align 8, !tbaa !4
  store ptr %1, ptr %6, align 8, !tbaa !69
  store i32 %2, ptr %7, align 4, !tbaa !27
  store i32 %3, ptr %8, align 4, !tbaa !27
  call void @llvm.lifetime.start.p0(i64 8, ptr %9) #7
  %25 = load ptr, ptr %5, align 8, !tbaa !4
  %26 = getelementptr inbounds nuw %struct.AVFilterContext, ptr %25, i32 0, i32 9
  %27 = load ptr, ptr %26, align 8, !tbaa !9
  store ptr %27, ptr %9, align 8, !tbaa !22
  call void @llvm.lifetime.start.p0(i64 8, ptr %10) #7
  %28 = load ptr, ptr %9, align 8, !tbaa !22
  %29 = getelementptr inbounds nuw %struct.AudioSDRContext, ptr %28, i32 0, i32 4
  %30 = getelementptr inbounds [2 x ptr], ptr %29, i64 0, i64 0
  %31 = load ptr, ptr %30, align 8, !tbaa !62
  store ptr %31, ptr %10, align 8, !tbaa !62
  call void @llvm.lifetime.start.p0(i64 8, ptr %11) #7
  %32 = load ptr, ptr %9, align 8, !tbaa !22
  %33 = getelementptr inbounds nuw %struct.AudioSDRContext, ptr %32, i32 0, i32 4
  %34 = getelementptr inbounds [2 x ptr], ptr %33, i64 0, i64 1
  %35 = load ptr, ptr %34, align 8, !tbaa !62
  store ptr %35, ptr %11, align 8, !tbaa !62
  call void @llvm.lifetime.start.p0(i64 4, ptr %12) #7
  %36 = load ptr, ptr %10, align 8, !tbaa !62
  %37 = getelementptr inbounds nuw %struct.AVFrame, ptr %36, i32 0, i32 37
  %38 = getelementptr inbounds nuw %struct.AVChannelLayout, ptr %37, i32 0, i32 1
  %39 = load i32, ptr %38, align 4, !tbaa !70
  store i32 %39, ptr %12, align 4, !tbaa !27
  call void @llvm.lifetime.start.p0(i64 4, ptr %13) #7
  %40 = load i32, ptr %12, align 4, !tbaa !27
  %41 = load i32, ptr %7, align 4, !tbaa !27
  %42 = mul nsw i32 %40, %41
  %43 = load i32, ptr %8, align 4, !tbaa !27
  %44 = sdiv i32 %42, %43
  store i32 %44, ptr %13, align 4, !tbaa !27
  call void @llvm.lifetime.start.p0(i64 4, ptr %14) #7
  %45 = load i32, ptr %12, align 4, !tbaa !27
  %46 = load i32, ptr %7, align 4, !tbaa !27
  %47 = add nsw i32 %46, 1
  %48 = mul nsw i32 %45, %47
  %49 = load i32, ptr %8, align 4, !tbaa !27
  %50 = sdiv i32 %48, %49
  store i32 %50, ptr %14, align 4, !tbaa !27
  call void @llvm.lifetime.start.p0(i64 4, ptr %15) #7
  %51 = load ptr, ptr %10, align 8, !tbaa !62
  %52 = getelementptr inbounds nuw %struct.AVFrame, ptr %51, i32 0, i32 5
  %53 = load i32, ptr %52, align 8, !tbaa !75
  store i32 %53, ptr %15, align 4, !tbaa !27
  call void @llvm.lifetime.start.p0(i64 4, ptr %16) #7
  %54 = load i32, ptr %13, align 4, !tbaa !27
  store i32 %54, ptr %16, align 4, !tbaa !27
  br label %55

55:                                               ; preds = %148, %4
  %56 = load i32, ptr %16, align 4, !tbaa !27
  %57 = load i32, ptr %14, align 4, !tbaa !27
  %58 = icmp slt i32 %56, %57
  br i1 %58, label %60, label %59

59:                                               ; preds = %55
  store i32 2, ptr %17, align 4
  call void @llvm.lifetime.end.p0(i64 4, ptr %16) #7
  br label %151

60:                                               ; preds = %55
  call void @llvm.lifetime.start.p0(i64 8, ptr %18) #7
  %61 = load ptr, ptr %9, align 8, !tbaa !22
  %62 = getelementptr inbounds nuw %struct.AudioSDRContext, ptr %61, i32 0, i32 3
  %63 = load ptr, ptr %62, align 8, !tbaa !33
  %64 = load i32, ptr %16, align 4, !tbaa !27
  %65 = sext i32 %64 to i64
  %66 = getelementptr inbounds %struct.ChanStats, ptr %63, i64 %65
  store ptr %66, ptr %18, align 8, !tbaa !76
  call void @llvm.lifetime.start.p0(i64 8, ptr %19) #7
  %67 = load ptr, ptr %10, align 8, !tbaa !62
  %68 = getelementptr inbounds nuw %struct.AVFrame, ptr %67, i32 0, i32 2
  %69 = load ptr, ptr %68, align 8, !tbaa !77
  %70 = load i32, ptr %16, align 4, !tbaa !27
  %71 = sext i32 %70 to i64
  %72 = getelementptr inbounds ptr, ptr %69, i64 %71
  %73 = load ptr, ptr %72, align 8, !tbaa !78
  store ptr %73, ptr %19, align 8, !tbaa !79
  call void @llvm.lifetime.start.p0(i64 8, ptr %20) #7
  %74 = load ptr, ptr %11, align 8, !tbaa !62
  %75 = getelementptr inbounds nuw %struct.AVFrame, ptr %74, i32 0, i32 2
  %76 = load ptr, ptr %75, align 8, !tbaa !77
  %77 = load i32, ptr %16, align 4, !tbaa !27
  %78 = sext i32 %77 to i64
  %79 = getelementptr inbounds ptr, ptr %76, i64 %78
  %80 = load ptr, ptr %79, align 8, !tbaa !78
  store ptr %80, ptr %20, align 8, !tbaa !79
  call void @llvm.lifetime.start.p0(i64 8, ptr %21) #7
  store double 0.000000e+00, ptr %21, align 8, !tbaa !40
  call void @llvm.lifetime.start.p0(i64 8, ptr %22) #7
  store double 0.000000e+00, ptr %22, align 8, !tbaa !40
  call void @llvm.lifetime.start.p0(i64 8, ptr %23) #7
  store double 0.000000e+00, ptr %23, align 8, !tbaa !40
  call void @llvm.lifetime.start.p0(i64 4, ptr %24) #7
  store i32 0, ptr %24, align 4, !tbaa !27
  br label %81

81:                                               ; preds = %129, %60
  %82 = load i32, ptr %24, align 4, !tbaa !27
  %83 = load i32, ptr %15, align 4, !tbaa !27
  %84 = icmp slt i32 %82, %83
  br i1 %84, label %86, label %85

85:                                               ; preds = %81
  store i32 5, ptr %17, align 4
  call void @llvm.lifetime.end.p0(i64 4, ptr %24) #7
  br label %132

86:                                               ; preds = %81
  %87 = load ptr, ptr %19, align 8, !tbaa !79
  %88 = load i32, ptr %24, align 4, !tbaa !27
  %89 = sext i32 %88 to i64
  %90 = getelementptr inbounds float, ptr %87, i64 %89
  %91 = load float, ptr %90, align 4, !tbaa !81
  %92 = load ptr, ptr %19, align 8, !tbaa !79
  %93 = load i32, ptr %24, align 4, !tbaa !27
  %94 = sext i32 %93 to i64
  %95 = getelementptr inbounds float, ptr %92, i64 %94
  %96 = load float, ptr %95, align 4, !tbaa !81
  %97 = fmul nsz float %91, %96
  %98 = fpext nsz float %97 to double
  %99 = load double, ptr %22, align 8, !tbaa !40
  %100 = fadd nsz double %99, %98
  store double %100, ptr %22, align 8, !tbaa !40
  %101 = load ptr, ptr %20, align 8, !tbaa !79
  %102 = load i32, ptr %24, align 4, !tbaa !27
  %103 = sext i32 %102 to i64
  %104 = getelementptr inbounds float, ptr %101, i64 %103
  %105 = load float, ptr %104, align 4, !tbaa !81
  %106 = load ptr, ptr %20, align 8, !tbaa !79
  %107 = load i32, ptr %24, align 4, !tbaa !27
  %108 = sext i32 %107 to i64
  %109 = getelementptr inbounds float, ptr %106, i64 %108
  %110 = load float, ptr %109, align 4, !tbaa !81
  %111 = fmul nsz float %105, %110
  %112 = fpext nsz float %111 to double
  %113 = load double, ptr %23, align 8, !tbaa !40
  %114 = fadd nsz double %113, %112
  store double %114, ptr %23, align 8, !tbaa !40
  %115 = load ptr, ptr %19, align 8, !tbaa !79
  %116 = load i32, ptr %24, align 4, !tbaa !27
  %117 = sext i32 %116 to i64
  %118 = getelementptr inbounds float, ptr %115, i64 %117
  %119 = load float, ptr %118, align 4, !tbaa !81
  %120 = load ptr, ptr %20, align 8, !tbaa !79
  %121 = load i32, ptr %24, align 4, !tbaa !27
  %122 = sext i32 %121 to i64
  %123 = getelementptr inbounds float, ptr %120, i64 %122
  %124 = load float, ptr %123, align 4, !tbaa !81
  %125 = fmul nsz float %119, %124
  %126 = fpext nsz float %125 to double
  %127 = load double, ptr %21, align 8, !tbaa !40
  %128 = fadd nsz double %127, %126
  store double %128, ptr %21, align 8, !tbaa !40
  br label %129

129:                                              ; preds = %86
  %130 = load i32, ptr %24, align 4, !tbaa !27
  %131 = add nsw i32 %130, 1
  store i32 %131, ptr %24, align 4, !tbaa !27
  br label %81, !llvm.loop !88

132:                                              ; preds = %85
  %133 = load double, ptr %21, align 8, !tbaa !40
  %134 = load ptr, ptr %18, align 8, !tbaa !76
  %135 = getelementptr inbounds nuw %struct.ChanStats, ptr %134, i32 0, i32 2
  %136 = load double, ptr %135, align 8, !tbaa !36
  %137 = fadd nsz double %136, %133
  store double %137, ptr %135, align 8, !tbaa !36
  %138 = load double, ptr %22, align 8, !tbaa !40
  %139 = load ptr, ptr %18, align 8, !tbaa !76
  %140 = getelementptr inbounds nuw %struct.ChanStats, ptr %139, i32 0, i32 0
  %141 = load double, ptr %140, align 8, !tbaa !34
  %142 = fadd nsz double %141, %138
  store double %142, ptr %140, align 8, !tbaa !34
  %143 = load double, ptr %23, align 8, !tbaa !40
  %144 = load ptr, ptr %18, align 8, !tbaa !76
  %145 = getelementptr inbounds nuw %struct.ChanStats, ptr %144, i32 0, i32 1
  %146 = load double, ptr %145, align 8, !tbaa !39
  %147 = fadd nsz double %146, %143
  store double %147, ptr %145, align 8, !tbaa !39
  call void @llvm.lifetime.end.p0(i64 8, ptr %23) #7
  call void @llvm.lifetime.end.p0(i64 8, ptr %22) #7
  call void @llvm.lifetime.end.p0(i64 8, ptr %21) #7
  call void @llvm.lifetime.end.p0(i64 8, ptr %20) #7
  call void @llvm.lifetime.end.p0(i64 8, ptr %19) #7
  call void @llvm.lifetime.end.p0(i64 8, ptr %18) #7
  br label %148

148:                                              ; preds = %132
  %149 = load i32, ptr %16, align 4, !tbaa !27
  %150 = add nsw i32 %149, 1
  store i32 %150, ptr %16, align 4, !tbaa !27
  br label %55, !llvm.loop !89

151:                                              ; preds = %59
  store i32 1, ptr %17, align 4
  call void @llvm.lifetime.end.p0(i64 4, ptr %15) #7
  call void @llvm.lifetime.end.p0(i64 4, ptr %14) #7
  call void @llvm.lifetime.end.p0(i64 4, ptr %13) #7
  call void @llvm.lifetime.end.p0(i64 4, ptr %12) #7
  call void @llvm.lifetime.end.p0(i64 8, ptr %11) #7
  call void @llvm.lifetime.end.p0(i64 8, ptr %10) #7
  call void @llvm.lifetime.end.p0(i64 8, ptr %9) #7
  ret i32 0
}