; Function Attrs: nofree norecurse nosync nounwind memory(readwrite, inaccessiblemem: none) uwtable
define internal noundef i32 @sisdr_fltp(ptr noundef readonly captures(none) %0, ptr readnone captures(none) %1, i32 noundef %2, i32 noundef %3) #4 {
  %5 = getelementptr inbounds nuw i8, ptr %0, i64 72
  %6 = load ptr, ptr %5, align 8, !tbaa !4
  %7 = getelementptr inbounds nuw i8, ptr %6, i64 32
  %8 = load ptr, ptr %7, align 8, !tbaa !57
  %9 = getelementptr inbounds nuw i8, ptr %8, i64 388
  %10 = load i32, ptr %9, align 4, !tbaa !65
  %11 = mul nsw i32 %10, %2
  %12 = sdiv i32 %11, %3
  %13 = add nsw i32 %2, 1
  %14 = mul nsw i32 %10, %13
  %15 = sdiv i32 %14, %3
  %16 = getelementptr inbounds nuw i8, ptr %8, i64 112
  %17 = load i32, ptr %16, align 8, !tbaa !70
  %18 = icmp slt i32 %12, %15
  br i1 %18, label %.lr.ph56, label %._crit_edge57

.lr.ph56:                                         ; preds = %4
  %19 = getelementptr inbounds nuw i8, ptr %6, i64 40
  %20 = load ptr, ptr %19, align 8, !tbaa !57
  %21 = getelementptr inbounds nuw i8, ptr %6, i64 24
  %22 = load ptr, ptr %21, align 8, !tbaa !28
  %23 = getelementptr inbounds nuw i8, ptr %8, i64 96
  %24 = load ptr, ptr %23, align 8, !tbaa !71
  %25 = getelementptr inbounds nuw i8, ptr %20, i64 96
  %26 = load ptr, ptr %25, align 8, !tbaa !71
  %27 = icmp sgt i32 %17, 0
  br i1 %27, label %.lr.ph.us.preheader, label %._crit_edge57

.lr.ph.us.preheader:                              ; preds = %.lr.ph56
  %28 = sext i32 %12 to i64
  %wide.trip.count65 = sext i32 %15 to i64
  %wide.trip.count = zext nneg i32 %17 to i64
  br label %.lr.ph.us

.lr.ph.us:                                        ; preds = %.lr.ph.us.preheader, %._crit_edge.us
  %indvars.iv62 = phi i64 [ %28, %.lr.ph.us.preheader ], [ %indvars.iv.next63, %._crit_edge.us ]
  %29 = getelementptr inbounds ptr, ptr %24, i64 %indvars.iv62
  %30 = load ptr, ptr %29, align 8, !tbaa !72
  %31 = getelementptr inbounds ptr, ptr %26, i64 %indvars.iv62
  %32 = load ptr, ptr %31, align 8, !tbaa !72
  br label %33

33:                                               ; preds = %.lr.ph.us, %33
  %indvars.iv = phi i64 [ 0, %.lr.ph.us ], [ %indvars.iv.next, %33 ]
  %.04450.us = phi double [ 0.000000e+00, %.lr.ph.us ], [ %43, %33 ]
  %.04549.us = phi double [ 0.000000e+00, %.lr.ph.us ], [ %38, %33 ]
  %.04648.us = phi double [ 0.000000e+00, %.lr.ph.us ], [ %46, %33 ]
  %34 = getelementptr inbounds nuw float, ptr %30, i64 %indvars.iv
  %35 = load float, ptr %34, align 4, !tbaa !73
  %36 = fmul nsz float %35, %35
  %37 = fpext nsz float %36 to double
  %38 = fadd nsz double %.04549.us, %37
  %39 = getelementptr inbounds nuw float, ptr %32, i64 %indvars.iv
  %40 = load float, ptr %39, align 4, !tbaa !73
  %41 = fmul nsz float %40, %40
  %42 = fpext nsz float %41 to double
  %43 = fadd nsz double %.04450.us, %42
  %44 = fmul nsz float %35, %40
  %45 = fpext nsz float %44 to double
  %46 = fadd nsz double %.04648.us, %45
  %indvars.iv.next = add nuw nsw i64 %indvars.iv, 1
  %exitcond.not = icmp eq i64 %indvars.iv.next, %wide.trip.count
  br i1 %exitcond.not, label %._crit_edge.us, label %33, !llvm.loop !80

._crit_edge.us:                                   ; preds = %33
  %47 = getelementptr inbounds %struct.ChanStats, ptr %22, i64 %indvars.iv62
  %48 = getelementptr inbounds nuw i8, ptr %47, i64 16
  %49 = load double, ptr %48, align 8, !tbaa !31
  %50 = fadd nsz double %46, %49
  store double %50, ptr %48, align 8, !tbaa !31
  %51 = load double, ptr %47, align 8, !tbaa !29
  %52 = fadd nsz double %38, %51
  store double %52, ptr %47, align 8, !tbaa !29
  %53 = getelementptr inbounds nuw i8, ptr %47, i64 8
  %54 = load double, ptr %53, align 8, !tbaa !34
  %55 = fadd nsz double %43, %54
  store double %55, ptr %53, align 8, !tbaa !34
  %indvars.iv.next63 = add nsw i64 %indvars.iv62, 1
  %exitcond66.not = icmp eq i64 %indvars.iv.next63, %wide.trip.count65
  br i1 %exitcond66.not, label %._crit_edge57, label %.lr.ph.us, !llvm.loop !81

._crit_edge57:                                    ; preds = %._crit_edge.us, %.lr.ph56, %4
  ret i32 0
}